target datalayout = "e-m:e-p270:32:32-p271:32:32-p272:64:64-i64:64-i128:128-f80:128-n8:16:32:64-S128"
target triple = "x86_64-pc-linux-gnu"

%struct._zend_refcounted_h = type { i32, %union.anon }
%union.anon = type { i32 }
%struct._zval_struct = type { %union._zend_value, %union.anon.0, %union.anon.3 }
%union._zend_value = type { i64 }
%union.anon.0 = type { i32 }
%union.anon.3 = type { i32 }
%struct.browscap_entry = type { ptr, ptr, i32, i32, [5 x i16], [5 x i8], i8 }

; Function Attrs: nounwind uwtable
define internal void @browscap_entry_dtor_persistent(ptr noundef %0) #0 {
  %2 = alloca ptr, align 8
  %3 = alloca ptr, align 8
  %4 = alloca i32, align 4
  %5 = alloca i32, align 4
  %6 = alloca ptr, align 8
  %7 = alloca i8, align 1
  %8 = alloca ptr, align 8
  %9 = alloca i8, align 1
  %10 = alloca ptr, align 8
  %11 = alloca ptr, align 8
  store ptr %0, ptr %10, align 8
  %12 = load ptr, ptr %10, align 8
  %13 = getelementptr inbounds %struct._zval_struct, ptr %12, i32 0, i32 0
  %14 = load ptr, ptr %13, align 8
  store ptr %14, ptr %11, align 8
  %15 = load ptr, ptr %11, align 8
  %16 = getelementptr inbounds %struct.browscap_entry, ptr %15, i32 0, i32 0
  %17 = load ptr, ptr %16, align 8
  store ptr %17, ptr %6, align 8
  store i8 1, ptr %7, align 1
  %18 = load ptr, ptr %6, align 8
  %19 = getelementptr inbounds %struct._zend_refcounted_h, ptr %18, i32 0, i32 1
  %20 = load i32, ptr %19, align 4
  store i32 %20, ptr %5, align 4
  %21 = load i32, ptr %5, align 4
  %22 = and i32 %21, 1008
  %23 = and i32 %22, 64
  %24 = icmp ne i32 %23, 0
  br i1 %24, label %43, label %25

25:                                               ; preds = %1
  %26 = load ptr, ptr %6, align 8
  store ptr %26, ptr %3, align 8
  %27 = load ptr, ptr %3, align 8
  %28 = load i32, ptr %27, align 4
  %29 = icmp ugt i32 %28, 0
  call void @llvm.assume(i1 %29)
  %30 = load ptr, ptr %3, align 8
  %31 = load i32, ptr %30, align 4
  %32 = add i32 %31, -1
  store i32 %32, ptr %30, align 4
  %33 = icmp eq i32 %32, 0
  br i1 %33, label %34, label %42

34:                                               ; preds = %25
  %35 = load i8, ptr %7, align 1
  %36 = trunc i8 %35 to i1
  br i1 %36, label %37, label %39

37:                                               ; preds = %34
  %38 = load ptr, ptr %6, align 8
  call void @free(ptr noundef %38) #9
  br label %41

39:                                               ; preds = %34
  %40 = load ptr, ptr %6, align 8
  call void @_efree(ptr noundef %40) #9
  br label %41

41:                                               ; preds = %39, %37
  br label %42

42:                                               ; preds = %41, %25
  br label %43

43:                                               ; preds = %42, %1
  %44 = load ptr, ptr %11, align 8
  %45 = getelementptr inbounds %struct.browscap_entry, ptr %44, i32 0, i32 1
  %46 = load ptr, ptr %45, align 8
  %47 = icmp ne ptr %46, null
  br i1 %47, label %48, label %78

48:                                               ; preds = %43
  %49 = load ptr, ptr %11, align 8
  %50 = getelementptr inbounds %struct.browscap_entry, ptr %49, i32 0, i32 1
  %51 = load ptr, ptr %50, align 8
  store ptr %51, ptr %8, align 8
  store i8 1, ptr %9, align 1
  %52 = load ptr, ptr %8, align 8
  %53 = getelementptr inbounds %struct._zend_refcounted_h, ptr %52, i32 0, i32 1
  %54 = load i32, ptr %53, align 4
  store i32 %54, ptr %4, align 4
  %55 = load i32, ptr %4, align 4
  %56 = and i32 %55, 1008
  %57 = and i32 %56, 64
  %58 = icmp ne i32 %57, 0
  br i1 %58, label %77, label %59

59:                                               ; preds = %48
  %60 = load ptr, ptr %8, align 8
  store ptr %60, ptr %2, align 8
  %61 = load ptr, ptr %2, align 8
  %62 = load i32, ptr %61, align 4
  %63 = icmp ugt i32 %62, 0
  call void @llvm.assume(i1 %63)
  %64 = load ptr, ptr %2, align 8
  %65 = load i32, ptr %64, align 4
  %66 = add i32 %65, -1
  store i32 %66, ptr %64, align 4
  %67 = icmp eq i32 %66, 0
  br i1 %67, label %68, label %76

68:                                               ; preds = %59
  %69 = load i8, ptr %9, align 1
  %70 = trunc i8 %69 to i1
  br i1 %70, label %71, label %73

71:                                               ; preds = %68
  %72 = load ptr, ptr %8, align 8
  call void @free(ptr noundef %72) #9
  br label %75

73:                                               ; preds = %68
  %74 = load ptr, ptr %8, align 8
  call void @_efree(ptr noundef %74) #9
  br label %75

75:                                               ; preds = %73, %71
  br label %76

76:                                               ; preds = %75, %59
  br label %77

77:                                               ; preds = %76, %48
  br label %78

78:                                               ; preds = %77, %43
  %79 = load ptr, ptr %11, align 8
  call void @free(ptr noundef %79) #9
  ret void
}