; Function Attrs: mustprogress nounwind willreturn uwtable
define internal void @browscap_entry_dtor_persistent(ptr nocapture noundef readonly %0) #7 {
  %2 = load ptr, ptr %0, align 8
  %3 = load ptr, ptr %2, align 8
  %4 = getelementptr inbounds i8, ptr %3, i64 4
  %5 = load i32, ptr %4, align 4
  %6 = and i32 %5, 64
  %.not = icmp eq i32 %6, 0
  br i1 %.not, label %7, label %13

7:                                                ; preds = %1
  %8 = load i32, ptr %3, align 4
  %9 = icmp ne i32 %8, 0
  tail call void @llvm.assume(i1 %9)
  %10 = add i32 %8, -1
  store i32 %10, ptr %3, align 4
  %11 = icmp eq i32 %10, 0
  br i1 %11, label %12, label %13

12:                                               ; preds = %7
  tail call void @free(ptr noundef nonnull %3) #13
  br label %13

13:                                               ; preds = %7, %12, %1
  %14 = getelementptr inbounds i8, ptr %2, i64 8
  %15 = load ptr, ptr %14, align 8
  %.not20 = icmp eq ptr %15, null
  br i1 %.not20, label %26, label %16

16:                                               ; preds = %13
  %17 = getelementptr inbounds i8, ptr %15, i64 4
  %18 = load i32, ptr %17, align 4
  %19 = and i32 %18, 64
  %.not21 = icmp eq i32 %19, 0
  br i1 %.not21, label %20, label %26

20:                                               ; preds = %16
  %21 = load i32, ptr %15, align 4
  %22 = icmp ne i32 %21, 0
  tail call void @llvm.assume(i1 %22)
  %23 = add i32 %21, -1
  store i32 %23, ptr %15, align 4
  %24 = icmp eq i32 %23, 0
  br i1 %24, label %25, label %26

25:                                               ; preds = %20
  tail call void @free(ptr noundef nonnull %15) #13
  br label %26

26:                                               ; preds = %16, %25, %20, %13
  tail call void @free(ptr noundef nonnull %2) #13
  ret void
}